; Function Attrs: mustprogress nounwind willreturn uwtable
define internal void @sunTimerStructFree(ptr noundef captures(address_is_null) %0) #6 {
  %.not = icmp eq ptr %0, null
  br i1 %.not, label %10, label %2

2:                                                ; preds = %1
  %3 = load ptr, ptr %0, align 8, !tbaa !8
  %.not9 = icmp eq ptr %3, null
  br i1 %.not9, label %5, label %4

4:                                                ; preds = %2
  tail call void @free(ptr noundef nonnull %3) #18
  br label %5

5:                                                ; preds = %4, %2
  %6 = getelementptr inbounds nuw i8, ptr %0, i64 8
  %7 = load ptr, ptr %6, align 8, !tbaa !13
  %.not10 = icmp eq ptr %7, null
  br i1 %.not10, label %9, label %8

8:                                                ; preds = %5
  tail call void @free(ptr noundef nonnull %7) #18
  br label %9

9:                                                ; preds = %8, %5
  tail call void @free(ptr noundef nonnull %0) #18
  br label %10

10:                                               ; preds = %9, %1
  ret void
}